; Function Attrs: mustprogress nounwind uwtable
define internal fastcc void @_ZNSt8_Rb_treeIjSt4pairIKjN3ue212_GLOBAL__N_18TreeNodeEESt10_Select1stIS5_ESt4lessIjESaIS5_EE8_M_eraseEPSt13_Rb_tree_nodeIS5_E(ptr noundef %0) unnamed_addr #15 align 2 personality ptr @__gxx_personality_v0 {
  %.not1 = icmp eq ptr %0, null
  br i1 %.not1, label %._crit_edge, label %_ZNSt3mapIjN3ue212_GLOBAL__N_18TreeNodeESt4lessIjESaISt4pairIKjS2_EEED2Ev.exit

_ZNSt3mapIjN3ue212_GLOBAL__N_18TreeNodeESt4lessIjESaISt4pairIKjS2_EEED2Ev.exit: ; preds = %1, %_ZNSt3mapIjN3ue212_GLOBAL__N_18TreeNodeESt4lessIjESaISt4pairIKjS2_EEED2Ev.exit
  %.02 = phi ptr [ %.0.val, %_ZNSt3mapIjN3ue212_GLOBAL__N_18TreeNodeESt4lessIjESaISt4pairIKjS2_EEED2Ev.exit ], [ %0, %1 ]
  %2 = getelementptr i8, ptr %.02, i64 24
  %.0.val6 = load ptr, ptr %2, align 8
  tail call fastcc void @_ZNSt8_Rb_treeIjSt4pairIKjN3ue212_GLOBAL__N_18TreeNodeEESt10_Select1stIS5_ESt4lessIjESaIS5_EE8_M_eraseEPSt13_Rb_tree_nodeIS5_E(ptr noundef %.0.val6)
  %3 = getelementptr i8, ptr %.02, i64 16
  %.0.val = load ptr, ptr %3, align 8
  %4 = getelementptr i8, ptr %.02, i64 72
  %.val.i.i = load ptr, ptr %4, align 8
  tail call fastcc void @_ZNSt8_Rb_treeIjSt4pairIKjN3ue212_GLOBAL__N_18TreeNodeEESt10_Select1stIS5_ESt4lessIjESaIS5_EE8_M_eraseEPSt13_Rb_tree_nodeIS5_E(ptr noundef %.val.i.i)
  tail call void @_ZdlPv(ptr noundef nonnull %.02) #22
  %.not = icmp eq ptr %.0.val, null
  br i1 %.not, label %._crit_edge, label %_ZNSt3mapIjN3ue212_GLOBAL__N_18TreeNodeESt4lessIjESaISt4pairIKjS2_EEED2Ev.exit, !llvm.loop !18

._crit_edge:                                      ; preds = %_ZNSt3mapIjN3ue212_GLOBAL__N_18TreeNodeESt4lessIjESaISt4pairIKjS2_EEED2Ev.exit, %1
  ret void
}